target datalayout = "e-m:e-p270:32:32-p271:32:32-p272:64:64-i64:64-i128:128-f80:128-n8:16:32:64-S128"
target triple = "x86_64-pc-linux-gnu"

@.str.10 = private unnamed_addr constant [46 x i8] c"%10.4e %12.4e %12.4e %12.4e %3ld  %1d %12.4e\0A\00", align 1

; Function Attrs: nounwind uwtable
define internal i32 @PrintOutput(ptr noundef %0, double noundef %1, ptr noundef %2) #0 {
  %4 = alloca ptr, align 8
  %5 = alloca double, align 8
  %6 = alloca ptr, align 8
  %7 = alloca ptr, align 8
  %8 = alloca i32, align 4
  %9 = alloca i32, align 4
  %10 = alloca i64, align 8
  %11 = alloca double, align 8
  store ptr %0, ptr %4, align 8, !tbaa !13
  store double %1, ptr %5, align 8, !tbaa !35
  store ptr %2, ptr %6, align 8, !tbaa !26
  call void @llvm.lifetime.start.p0(i64 8, ptr %7) #6
  call void @llvm.lifetime.start.p0(i64 4, ptr %8) #6
  call void @llvm.lifetime.start.p0(i64 4, ptr %9) #6
  call void @llvm.lifetime.start.p0(i64 8, ptr %10) #6
  call void @llvm.lifetime.start.p0(i64 8, ptr %11) #6
  %12 = load ptr, ptr %6, align 8, !tbaa !26
  %13 = call ptr @N_VGetArrayPointer(ptr noundef %12)
  store ptr %13, ptr %7, align 8, !tbaa !42
  %14 = load ptr, ptr %4, align 8, !tbaa !13
  %15 = call i32 @IDAGetLastOrder(ptr noundef %14, ptr noundef %9)
  store i32 %15, ptr %8, align 4, !tbaa !11
  %16 = load ptr, ptr %4, align 8, !tbaa !13
  %17 = call i32 @IDAGetNumSteps(ptr noundef %16, ptr noundef %10)
  store i32 %17, ptr %8, align 4, !tbaa !11
  %18 = load ptr, ptr %4, align 8, !tbaa !13
  %19 = call i32 @IDAGetLastStep(ptr noundef %18, ptr noundef %11)
  store i32 %19, ptr %8, align 4, !tbaa !11
  %20 = load double, ptr %5, align 8, !tbaa !35
  %21 = load ptr, ptr %7, align 8, !tbaa !42
  %22 = getelementptr inbounds double, ptr %21, i64 0
  %23 = load double, ptr %22, align 8, !tbaa !35
  %24 = load ptr, ptr %7, align 8, !tbaa !42
  %25 = getelementptr inbounds double, ptr %24, i64 1
  %26 = load double, ptr %25, align 8, !tbaa !35
  %27 = load ptr, ptr %7, align 8, !tbaa !42
  %28 = getelementptr inbounds double, ptr %27, i64 2
  %29 = load double, ptr %28, align 8, !tbaa !35
  %30 = load i64, ptr %10, align 8, !tbaa !43
  %31 = load i32, ptr %9, align 4, !tbaa !11
  %32 = load double, ptr %11, align 8, !tbaa !35
  %33 = call i32 (ptr, ...) @printf(ptr noundef @.str.10, double noundef %20, double noundef %23, double noundef %26, double noundef %29, i64 noundef %30, i32 noundef %31, double noundef %32)
  %34 = load i32, ptr %8, align 4, !tbaa !11
  call void @llvm.lifetime.end.p0(i64 8, ptr %11) #6
  call void @llvm.lifetime.end.p0(i64 8, ptr %10) #6
  call void @llvm.lifetime.end.p0(i64 4, ptr %9) #6
  call void @llvm.lifetime.end.p0(i64 4, ptr %8) #6
  call void @llvm.lifetime.end.p0(i64 8, ptr %7) #6
  ret i32 %34
}