; Function Attrs: nounwind uwtable
define internal fastcc void @PrintOutput(ptr noundef %0, double noundef %1, ptr noundef %2) unnamed_addr #0 {
  %4 = alloca i32, align 4
  %5 = alloca i64, align 8
  %6 = alloca double, align 8
  call void @llvm.lifetime.start.p0(i64 4, ptr nonnull %4) #12
  call void @llvm.lifetime.start.p0(i64 8, ptr nonnull %5) #12
  call void @llvm.lifetime.start.p0(i64 8, ptr nonnull %6) #12
  %7 = tail call ptr @N_VGetArrayPointer(ptr noundef %2) #12
  %8 = call i32 @IDAGetLastOrder(ptr noundef %0, ptr noundef nonnull %4) #12
  %9 = call i32 @IDAGetNumSteps(ptr noundef %0, ptr noundef nonnull %5) #12
  %10 = call i32 @IDAGetLastStep(ptr noundef %0, ptr noundef nonnull %6) #12
  %11 = load double, ptr %7, align 8, !tbaa !30
  %12 = getelementptr inbounds nuw i8, ptr %7, i64 8
  %13 = load double, ptr %12, align 8, !tbaa !30
  %14 = getelementptr inbounds nuw i8, ptr %7, i64 16
  %15 = load double, ptr %14, align 8, !tbaa !30
  %16 = load i64, ptr %5, align 8, !tbaa !31
  %17 = load i32, ptr %4, align 4, !tbaa !32
  %18 = load double, ptr %6, align 8, !tbaa !30
  %19 = call i32 (ptr, ...) @printf(ptr noundef nonnull dereferenceable(1) @.str.10, double noundef %1, double noundef %11, double noundef %13, double noundef %15, i64 noundef %16, i32 noundef %17, double noundef %18)
  call void @llvm.lifetime.end.p0(i64 8, ptr nonnull %6) #12
  call void @llvm.lifetime.end.p0(i64 8, ptr nonnull %5) #12
  call void @llvm.lifetime.end.p0(i64 4, ptr nonnull %4) #12
  ret void
}